target datalayout = "e-m:e-p270:32:32-p271:32:32-p272:64:64-i64:64-i128:128-f80:128-n8:16:32:64-S128"
target triple = "x86_64-pc-linux-gnu"

%struct.IPAddressFamily_st = type { ptr, ptr }
%struct.asn1_string_st = type { i32, i32, ptr, i64 }
%struct.IPAddressChoice_st = type { i32, %union.anon }
%union.anon = type { ptr }

; Function Attrs: nounwind uwtable
define internal i32 @length_from_afi(i32 noundef %0) #0 {
  %2 = alloca i32, align 4
  %3 = alloca i32, align 4
  store i32 %0, ptr %3, align 4, !tbaa !37
  %4 = load i32, ptr %3, align 4, !tbaa !37
  switch i32 %4, label %7 [
    i32 1, label %5
    i32 2, label %6
  ]

5:                                                ; preds = %1
  store i32 4, ptr %2, align 4
  br label %8

6:                                                ; preds = %1
  store i32 16, ptr %2, align 4
  br label %8

7:                                                ; preds = %1
  store i32 0, ptr %2, align 4
  br label %8

8:                                                ; preds = %7, %6, %5
  %9 = load i32, ptr %2, align 4
  ret i32 %9
}

; Function Attrs: nounwind uwtable
define i32 @X509v3_addr_get_afi(ptr noundef %0) #0 {
  %2 = alloca i32, align 4
  %3 = alloca ptr, align 8
  store ptr %0, ptr %3, align 8, !tbaa !24
  %4 = load ptr, ptr %3, align 8, !tbaa !24
  %5 = icmp eq ptr %4, null
  br i1 %5, label %25, label %6

6:                                                ; preds = %1
  %7 = load ptr, ptr %3, align 8, !tbaa !24
  %8 = getelementptr inbounds nuw %struct.IPAddressFamily_st, ptr %7, i32 0, i32 0
  %9 = load ptr, ptr %8, align 8, !tbaa !26
  %10 = icmp eq ptr %9, null
  br i1 %10, label %25, label %11

11:                                               ; preds = %6
  %12 = load ptr, ptr %3, align 8, !tbaa !24
  %13 = getelementptr inbounds nuw %struct.IPAddressFamily_st, ptr %12, i32 0, i32 0
  %14 = load ptr, ptr %13, align 8, !tbaa !26
  %15 = getelementptr inbounds nuw %struct.asn1_string_st, ptr %14, i32 0, i32 2
  %16 = load ptr, ptr %15, align 8, !tbaa !29
  %17 = icmp eq ptr %16, null
  br i1 %17, label %25, label %18

18:                                               ; preds = %11
  %19 = load ptr, ptr %3, align 8, !tbaa !24
  %20 = getelementptr inbounds nuw %struct.IPAddressFamily_st, ptr %19, i32 0, i32 0
  %21 = load ptr, ptr %20, align 8, !tbaa !26
  %22 = getelementptr inbounds nuw %struct.asn1_string_st, ptr %21, i32 0, i32 0
  %23 = load i32, ptr %22, align 8, !tbaa !33
  %24 = icmp slt i32 %23, 2
  br i1 %24, label %25, label %26

25:                                               ; preds = %18, %11, %6, %1
  store i32 0, ptr %2, align 4
  br label %45

26:                                               ; preds = %18
  %27 = load ptr, ptr %3, align 8, !tbaa !24
  %28 = getelementptr inbounds nuw %struct.IPAddressFamily_st, ptr %27, i32 0, i32 0
  %29 = load ptr, ptr %28, align 8, !tbaa !26
  %30 = getelementptr inbounds nuw %struct.asn1_string_st, ptr %29, i32 0, i32 2
  %31 = load ptr, ptr %30, align 8, !tbaa !29
  %32 = getelementptr inbounds i8, ptr %31, i64 0
  %33 = load i8, ptr %32, align 1, !tbaa !34
  %34 = zext i8 %33 to i32
  %35 = shl i32 %34, 8
  %36 = load ptr, ptr %3, align 8, !tbaa !24
  %37 = getelementptr inbounds nuw %struct.IPAddressFamily_st, ptr %36, i32 0, i32 0
  %38 = load ptr, ptr %37, align 8, !tbaa !26
  %39 = getelementptr inbounds nuw %struct.asn1_string_st, ptr %38, i32 0, i32 2
  %40 = load ptr, ptr %39, align 8, !tbaa !29
  %41 = getelementptr inbounds i8, ptr %40, i64 1
  %42 = load i8, ptr %41, align 1, !tbaa !34
  %43 = zext i8 %42 to i32
  %44 = or i32 %35, %43
  store i32 %44, ptr %2, align 4
  br label %45

45:                                               ; preds = %26, %25
  %46 = load i32, ptr %2, align 4
  ret i32 %46
}

; Function Attrs: nounwind uwtable
define internal i32 @IPAddressFamily_check_len(ptr noundef %0) #0 {
  %2 = alloca i32, align 4
  %3 = alloca ptr, align 8
  store ptr %0, ptr %3, align 8, !tbaa !24
  %4 = load ptr, ptr %3, align 8, !tbaa !24
  %5 = getelementptr inbounds nuw %struct.IPAddressFamily_st, ptr %4, i32 0, i32 0
  %6 = load ptr, ptr %5, align 8, !tbaa !26
  %7 = getelementptr inbounds nuw %struct.asn1_string_st, ptr %6, i32 0, i32 0
  %8 = load i32, ptr %7, align 8, !tbaa !33
  %9 = icmp slt i32 %8, 2
  br i1 %9, label %17, label %10

10:                                               ; preds = %1
  %11 = load ptr, ptr %3, align 8, !tbaa !24
  %12 = getelementptr inbounds nuw %struct.IPAddressFamily_st, ptr %11, i32 0, i32 0
  %13 = load ptr, ptr %12, align 8, !tbaa !26
  %14 = getelementptr inbounds nuw %struct.asn1_string_st, ptr %13, i32 0, i32 0
  %15 = load i32, ptr %14, align 8, !tbaa !33
  %16 = icmp sgt i32 %15, 3
  br i1 %16, label %17, label %18

17:                                               ; preds = %10, %1
  store i32 0, ptr %2, align 4
  br label %19

18:                                               ; preds = %10
  store i32 1, ptr %2, align 4
  br label %19

19:                                               ; preds = %18, %17
  %20 = load i32, ptr %2, align 4
  ret i32 %20
}

; Function Attrs: inlinehint nounwind uwtable
define internal ptr @ossl_check_IPAddressFamily_type(ptr noundef %0) #3 {
  %2 = alloca ptr, align 8
  store ptr %0, ptr %2, align 8, !tbaa !24
  %3 = load ptr, ptr %2, align 8, !tbaa !24
  ret ptr %3
}

; Function Attrs: inlinehint nounwind uwtable
define internal ptr @ossl_check_const_IPAddressFamily_sk_type(ptr noundef %0) #3 {
  %2 = alloca ptr, align 8
  store ptr %0, ptr %2, align 8, !tbaa !35
  %3 = load ptr, ptr %2, align 8, !tbaa !35
  ret ptr %3
}

; Function Attrs: inlinehint nounwind uwtable
define internal ptr @ossl_check_IPAddressFamily_compfunc_type(ptr noundef %0) #3 {
  %2 = alloca ptr, align 8
  store ptr %0, ptr %2, align 8, !tbaa !68
  %3 = load ptr, ptr %2, align 8, !tbaa !68
  ret ptr %3
}

; Function Attrs: inlinehint nounwind uwtable
define internal ptr @ossl_check_IPAddressFamily_sk_type(ptr noundef %0) #3 {
  %2 = alloca ptr, align 8
  store ptr %0, ptr %2, align 8, !tbaa !35
  %3 = load ptr, ptr %2, align 8, !tbaa !35
  ret ptr %3
}

; Function Attrs: nounwind uwtable
define i32 @X509v3_addr_inherits(ptr noundef %0) #0 {
  %2 = alloca i32, align 4
  %3 = alloca ptr, align 8
  %4 = alloca i32, align 4
  %5 = alloca i32, align 4
  %6 = alloca ptr, align 8
  store ptr %0, ptr %3, align 8, !tbaa !35
  call void @llvm.lifetime.start.p0(i64 4, ptr %4) #9
  %7 = load ptr, ptr %3, align 8, !tbaa !35
  %8 = icmp eq ptr %7, null
  br i1 %8, label %9, label %10

9:                                                ; preds = %1
  store i32 0, ptr %2, align 4
  store i32 1, ptr %5, align 4
  br label %37

10:                                               ; preds = %1
  store i32 0, ptr %4, align 4, !tbaa !37
  br label %11

11:                                               ; preds = %33, %10
  %12 = load i32, ptr %4, align 4, !tbaa !37
  %13 = load ptr, ptr %3, align 8, !tbaa !35
  %14 = call ptr @ossl_check_const_IPAddressFamily_sk_type(ptr noundef %13)
  %15 = call i32 @OPENSSL_sk_num(ptr noundef %14)
  %16 = icmp slt i32 %12, %15
  br i1 %16, label %17, label %36

17:                                               ; preds = %11
  call void @llvm.lifetime.start.p0(i64 8, ptr %6) #9
  %18 = load ptr, ptr %3, align 8, !tbaa !35
  %19 = call ptr @ossl_check_const_IPAddressFamily_sk_type(ptr noundef %18)
  %20 = load i32, ptr %4, align 4, !tbaa !37
  %21 = call ptr @OPENSSL_sk_value(ptr noundef %19, i32 noundef %20)
  store ptr %21, ptr %6, align 8, !tbaa !24
  %22 = load ptr, ptr %6, align 8, !tbaa !24
  %23 = getelementptr inbounds nuw %struct.IPAddressFamily_st, ptr %22, i32 0, i32 1
  %24 = load ptr, ptr %23, align 8, !tbaa !40
  %25 = getelementptr inbounds nuw %struct.IPAddressChoice_st, ptr %24, i32 0, i32 0
  %26 = load i32, ptr %25, align 8, !tbaa !41
  %27 = icmp eq i32 %26, 0
  br i1 %27, label %28, label %29

28:                                               ; preds = %17
  store i32 1, ptr %2, align 4
  store i32 1, ptr %5, align 4
  br label %30

29:                                               ; preds = %17
  store i32 0, ptr %5, align 4
  br label %30

30:                                               ; preds = %29, %28
  call void @llvm.lifetime.end.p0(i64 8, ptr %6) #9
  %31 = load i32, ptr %5, align 4
  switch i32 %31, label %37 [
    i32 0, label %32
  ]

32:                                               ; preds = %30
  br label %33

33:                                               ; preds = %32
  %34 = load i32, ptr %4, align 4, !tbaa !37
  %35 = add nsw i32 %34, 1
  store i32 %35, ptr %4, align 4, !tbaa !37
  br label %11, !llvm.loop !82

36:                                               ; preds = %11
  store i32 0, ptr %2, align 4
  store i32 1, ptr %5, align 4
  br label %37

37:                                               ; preds = %36, %30, %9
  call void @llvm.lifetime.end.p0(i64 4, ptr %4) #9
  %38 = load i32, ptr %2, align 4
  ret i32 %38
}

; Function Attrs: nounwind uwtable
define i32 @X509v3_addr_subset(ptr noundef %0, ptr noundef %1) #0 {
  %3 = alloca i32, align 4
  %4 = alloca ptr, align 8
  %5 = alloca ptr, align 8
  %6 = alloca i32, align 4
  %7 = alloca i32, align 4
  %8 = alloca ptr, align 8
  %9 = alloca i32, align 4
  %10 = alloca ptr, align 8
  store ptr %0, ptr %4, align 8, !tbaa !35
  store ptr %1, ptr %5, align 8, !tbaa !35
  call void @llvm.lifetime.start.p0(i64 4, ptr %6) #9
  %11 = load ptr, ptr %4, align 8, !tbaa !35
  %12 = icmp eq ptr %11, null
  br i1 %12, label %17, label %13

13:                                               ; preds = %2
  %14 = load ptr, ptr %4, align 8, !tbaa !35
  %15 = load ptr, ptr %5, align 8, !tbaa !35
  %16 = icmp eq ptr %14, %15
  br i1 %16, label %17, label %18

17:                                               ; preds = %13, %2
  store i32 1, ptr %3, align 4
  store i32 1, ptr %7, align 4
  br label %94

18:                                               ; preds = %13
  %19 = load ptr, ptr %5, align 8, !tbaa !35
  %20 = icmp eq ptr %19, null
  br i1 %20, label %29, label %21

21:                                               ; preds = %18
  %22 = load ptr, ptr %4, align 8, !tbaa !35
  %23 = call i32 @X509v3_addr_inherits(ptr noundef %22)
  %24 = icmp ne i32 %23, 0
  br i1 %24, label %29, label %25

25:                                               ; preds = %21
  %26 = load ptr, ptr %5, align 8, !tbaa !35
  %27 = call i32 @X509v3_addr_inherits(ptr noundef %26)
  %28 = icmp ne i32 %27, 0
  br i1 %28, label %29, label %30

29:                                               ; preds = %25, %21, %18
  store i32 0, ptr %3, align 4
  store i32 1, ptr %7, align 4
  br label %94

30:                                               ; preds = %25
  %31 = load ptr, ptr %5, align 8, !tbaa !35
  %32 = call ptr @ossl_check_IPAddressFamily_sk_type(ptr noundef %31)
  %33 = call ptr @ossl_check_IPAddressFamily_compfunc_type(ptr noundef @IPAddressFamily_cmp)
  %34 = call ptr @OPENSSL_sk_set_cmp_func(ptr noundef %32, ptr noundef %33)
  %35 = load ptr, ptr %5, align 8, !tbaa !35
  %36 = call ptr @ossl_check_IPAddressFamily_sk_type(ptr noundef %35)
  call void @OPENSSL_sk_sort(ptr noundef %36)
  store i32 0, ptr %6, align 4, !tbaa !37
  br label %37

37:                                               ; preds = %90, %30
  %38 = load i32, ptr %6, align 4, !tbaa !37
  %39 = load ptr, ptr %4, align 8, !tbaa !35
  %40 = call ptr @ossl_check_const_IPAddressFamily_sk_type(ptr noundef %39)
  %41 = call i32 @OPENSSL_sk_num(ptr noundef %40)
  %42 = icmp slt i32 %38, %41
  br i1 %42, label %43, label %93

43:                                               ; preds = %37
  call void @llvm.lifetime.start.p0(i64 8, ptr %8) #9
  %44 = load ptr, ptr %4, align 8, !tbaa !35
  %45 = call ptr @ossl_check_const_IPAddressFamily_sk_type(ptr noundef %44)
  %46 = load i32, ptr %6, align 4, !tbaa !37
  %47 = call ptr @OPENSSL_sk_value(ptr noundef %45, i32 noundef %46)
  store ptr %47, ptr %8, align 8, !tbaa !24
  call void @llvm.lifetime.start.p0(i64 4, ptr %9) #9
  %48 = load ptr, ptr %5, align 8, !tbaa !35
  %49 = call ptr @ossl_check_IPAddressFamily_sk_type(ptr noundef %48)
  %50 = load ptr, ptr %8, align 8, !tbaa !24
  %51 = call ptr @ossl_check_IPAddressFamily_type(ptr noundef %50)
  %52 = call i32 @OPENSSL_sk_find(ptr noundef %49, ptr noundef %51)
  store i32 %52, ptr %9, align 4, !tbaa !37
  call void @llvm.lifetime.start.p0(i64 8, ptr %10) #9
  %53 = load ptr, ptr %5, align 8, !tbaa !35
  %54 = call ptr @ossl_check_const_IPAddressFamily_sk_type(ptr noundef %53)
  %55 = load i32, ptr %9, align 4, !tbaa !37
  %56 = call ptr @OPENSSL_sk_value(ptr noundef %54, i32 noundef %55)
  store ptr %56, ptr %10, align 8, !tbaa !24
  %57 = load ptr, ptr %10, align 8, !tbaa !24
  %58 = icmp eq ptr %57, null
  br i1 %58, label %59, label %60

59:                                               ; preds = %43
  store i32 0, ptr %3, align 4
  store i32 1, ptr %7, align 4
  br label %87

60:                                               ; preds = %43
  %61 = load ptr, ptr %8, align 8, !tbaa !24
  %62 = call i32 @IPAddressFamily_check_len(ptr noundef %61)
  %63 = icmp ne i32 %62, 0
  br i1 %63, label %64, label %68

64:                                               ; preds = %60
  %65 = load ptr, ptr %10, align 8, !tbaa !24
  %66 = call i32 @IPAddressFamily_check_len(ptr noundef %65)
  %67 = icmp ne i32 %66, 0
  br i1 %67, label %69, label %68

68:                                               ; preds = %64, %60
  store i32 0, ptr %3, align 4
  store i32 1, ptr %7, align 4
  br label %87

69:                                               ; preds = %64
  %70 = load ptr, ptr %10, align 8, !tbaa !24
  %71 = getelementptr inbounds nuw %struct.IPAddressFamily_st, ptr %70, i32 0, i32 1
  %72 = load ptr, ptr %71, align 8, !tbaa !40
  %73 = getelementptr inbounds nuw %struct.IPAddressChoice_st, ptr %72, i32 0, i32 1
  %74 = load ptr, ptr %73, align 8, !tbaa !34
  %75 = load ptr, ptr %8, align 8, !tbaa !24
  %76 = getelementptr inbounds nuw %struct.IPAddressFamily_st, ptr %75, i32 0, i32 1
  %77 = load ptr, ptr %76, align 8, !tbaa !40
  %78 = getelementptr inbounds nuw %struct.IPAddressChoice_st, ptr %77, i32 0, i32 1
  %79 = load ptr, ptr %78, align 8, !tbaa !34
  %80 = load ptr, ptr %10, align 8, !tbaa !24
  %81 = call i32 @X509v3_addr_get_afi(ptr noundef %80)
  %82 = call i32 @length_from_afi(i32 noundef %81)
  %83 = call i32 @addr_contains(ptr noundef %74, ptr noundef %79, i32 noundef %82)
  %84 = icmp ne i32 %83, 0
  br i1 %84, label %86, label %85

85:                                               ; preds = %69
  store i32 0, ptr %3, align 4
  store i32 1, ptr %7, align 4
  br label %87

86:                                               ; preds = %69
  store i32 0, ptr %7, align 4
  br label %87

87:                                               ; preds = %86, %85, %68, %59
  call void @llvm.lifetime.end.p0(i64 8, ptr %10) #9
  call void @llvm.lifetime.end.p0(i64 4, ptr %9) #9
  call void @llvm.lifetime.end.p0(i64 8, ptr %8) #9
  %88 = load i32, ptr %7, align 4
  switch i32 %88, label %94 [
    i32 0, label %89
  ]

89:                                               ; preds = %87
  br label %90

90:                                               ; preds = %89
  %91 = load i32, ptr %6, align 4, !tbaa !37
  %92 = add nsw i32 %91, 1
  store i32 %92, ptr %6, align 4, !tbaa !37
  br label %37, !llvm.loop !83

93:                                               ; preds = %37
  store i32 1, ptr %3, align 4
  store i32 1, ptr %7, align 4
  br label %94

94:                                               ; preds = %93, %87, %29, %17
  call void @llvm.lifetime.end.p0(i64 4, ptr %6) #9
  %95 = load i32, ptr %3, align 4
  ret i32 %95
}