; Function Attrs: nounwind uwtable
define range(i32 0, 2) i32 @X509v3_addr_subset(ptr noundef %0, ptr noundef %1) local_unnamed_addr #1 {
  %3 = icmp eq ptr %0, null
  %4 = icmp eq ptr %0, %1
  %or.cond = or i1 %3, %4
  br i1 %or.cond, label %.critedge, label %5

5:                                                ; preds = %2
  %6 = icmp eq ptr %1, null
  br i1 %6, label %.critedge, label %.preheader.i

.preheader.i:                                     ; preds = %5
  %7 = tail call i32 @OPENSSL_sk_num(ptr noundef nonnull %0) #15
  %8 = icmp sgt i32 %7, 0
  br i1 %8, label %.lr.ph.i, label %.preheader.i34

9:                                                ; preds = %.lr.ph.i
  %10 = add nuw nsw i32 %.0911.i, 1
  %11 = tail call i32 @OPENSSL_sk_num(ptr noundef nonnull %0) #15
  %12 = icmp slt i32 %10, %11
  br i1 %12, label %.lr.ph.i, label %.preheader.i34, !llvm.loop !53

.lr.ph.i:                                         ; preds = %.preheader.i, %9
  %.0911.i = phi i32 [ %10, %9 ], [ 0, %.preheader.i ]
  %13 = tail call ptr @OPENSSL_sk_value(ptr noundef nonnull %0, i32 noundef %.0911.i) #15
  %14 = getelementptr inbounds nuw i8, ptr %13, i64 8
  %15 = load ptr, ptr %14, align 8, !tbaa !17
  %16 = load i32, ptr %15, align 8, !tbaa !18
  %.not.i = icmp eq i32 %16, 0
  br i1 %.not.i, label %.critedge, label %9

.preheader.i34:                                   ; preds = %9, %.preheader.i
  %17 = tail call i32 @OPENSSL_sk_num(ptr noundef nonnull %1) #15
  %18 = icmp sgt i32 %17, 0
  br i1 %18, label %.lr.ph.i36, label %.loopexit

19:                                               ; preds = %.lr.ph.i36
  %20 = add nuw nsw i32 %.0911.i37, 1
  %21 = tail call i32 @OPENSSL_sk_num(ptr noundef nonnull %1) #15
  %22 = icmp slt i32 %20, %21
  br i1 %22, label %.lr.ph.i36, label %.loopexit, !llvm.loop !53

.lr.ph.i36:                                       ; preds = %.preheader.i34, %19
  %.0911.i37 = phi i32 [ %20, %19 ], [ 0, %.preheader.i34 ]
  %23 = tail call ptr @OPENSSL_sk_value(ptr noundef nonnull %1, i32 noundef %.0911.i37) #15
  %24 = getelementptr inbounds nuw i8, ptr %23, i64 8
  %25 = load ptr, ptr %24, align 8, !tbaa !17
  %26 = load i32, ptr %25, align 8, !tbaa !18
  %.not.i38 = icmp eq i32 %26, 0
  br i1 %.not.i38, label %.critedge, label %19

.loopexit:                                        ; preds = %19, %.preheader.i34
  %27 = tail call ptr @OPENSSL_sk_set_cmp_func(ptr noundef nonnull %1, ptr noundef nonnull @IPAddressFamily_cmp) #15
  tail call void @OPENSSL_sk_sort(ptr noundef nonnull %1) #15
  %28 = tail call i32 @OPENSSL_sk_num(ptr noundef nonnull %0) #15
  %29 = icmp sgt i32 %28, 0
  br i1 %29, label %.lr.ph, label %.critedge

30:                                               ; preds = %.thread
  %31 = add nuw nsw i32 %.02460, 1
  %32 = tail call i32 @OPENSSL_sk_num(ptr noundef nonnull %0) #15
  %33 = icmp slt i32 %31, %32
  br i1 %33, label %.lr.ph, label %.critedge, !llvm.loop !54

.lr.ph:                                           ; preds = %.loopexit, %30
  %.02460 = phi i32 [ %31, %30 ], [ 0, %.loopexit ]
  %34 = tail call ptr @OPENSSL_sk_value(ptr noundef nonnull %0, i32 noundef %.02460) #15
  %35 = tail call i32 @OPENSSL_sk_find(ptr noundef nonnull %1, ptr noundef %34) #15
  %36 = tail call ptr @OPENSSL_sk_value(ptr noundef nonnull %1, i32 noundef %35) #15
  %37 = icmp eq ptr %36, null
  br i1 %37, label %.critedge, label %38

38:                                               ; preds = %.lr.ph
  %.val33 = load ptr, ptr %34, align 8, !tbaa !3
  %.val33.val = load i32, ptr %.val33, align 8, !tbaa !15
  %39 = and i32 %.val33.val, -2
  %or.cond.i.not = icmp eq i32 %39, 2
  br i1 %or.cond.i.not, label %40, label %.critedge

40:                                               ; preds = %38
  %.val = load ptr, ptr %36, align 8, !tbaa !3
  %.val.val = load i32, ptr %.val, align 8, !tbaa !15
  %41 = and i32 %.val.val, -2
  %or.cond.i41.not = icmp eq i32 %41, 2
  br i1 %or.cond.i41.not, label %42, label %.critedge

42:                                               ; preds = %40
  %43 = getelementptr inbounds nuw i8, ptr %36, i64 8
  %44 = load ptr, ptr %43, align 8, !tbaa !17
  %45 = getelementptr inbounds nuw i8, ptr %44, i64 8
  %46 = load ptr, ptr %45, align 8, !tbaa !16
  %47 = getelementptr inbounds nuw i8, ptr %34, i64 8
  %48 = load ptr, ptr %47, align 8, !tbaa !17
  %49 = getelementptr inbounds nuw i8, ptr %48, i64 8
  %50 = load ptr, ptr %49, align 8, !tbaa !16
  %51 = getelementptr inbounds nuw i8, ptr %.val, i64 8
  %52 = load ptr, ptr %51, align 8, !tbaa !10
  %53 = icmp eq ptr %52, null
  br i1 %53, label %.thread, label %X509v3_addr_get_afi.exit

X509v3_addr_get_afi.exit:                         ; preds = %42
  %54 = load i8, ptr %52, align 1, !tbaa !16
  %55 = zext i8 %54 to i32
  %56 = shl nuw nsw i32 %55, 8
  %57 = getelementptr inbounds nuw i8, ptr %52, i64 1
  %58 = load i8, ptr %57, align 1, !tbaa !16
  %59 = zext i8 %58 to i32
  %60 = or disjoint i32 %56, %59
  %.fr = freeze i32 %60
  %switch.selectcmp.i = icmp eq i32 %.fr, 2
  %spec.select = select i1 %switch.selectcmp.i, i32 16, i32 0
  %switch.selectcmp2.i = icmp eq i32 %.fr, 1
  %spec.select57 = select i1 %switch.selectcmp2.i, i32 4, i32 %spec.select
  br label %.thread

.thread:                                          ; preds = %X509v3_addr_get_afi.exit, %42
  %61 = phi i32 [ 0, %42 ], [ %spec.select57, %X509v3_addr_get_afi.exit ]
  %62 = tail call fastcc i32 @addr_contains(ptr noundef %46, ptr noundef %50, i32 noundef %61)
  %.not32.not = icmp eq i32 %62, 0
  br i1 %.not32.not, label %.critedge, label %30

.critedge:                                        ; preds = %.lr.ph.i, %.lr.ph.i36, %.thread, %30, %38, %40, %.lr.ph, %.loopexit, %5, %2
  %.0 = phi i32 [ 1, %2 ], [ 0, %5 ], [ 1, %.loopexit ], [ 0, %.thread ], [ 1, %30 ], [ 0, %38 ], [ 0, %40 ], [ 0, %.lr.ph ], [ 0, %.lr.ph.i36 ], [ 0, %.lr.ph.i ]
  ret i32 %.0
}